target datalayout = "e-m:e-p270:32:32-p271:32:32-p272:64:64-i64:64-i128:128-f80:128-n8:16:32:64-S128"
target triple = "x86_64-pc-linux-gnu"

%"class.Luau::CstNode" = type { i32 }
%"struct.Luau::AstArray.3" = type { ptr, i64 }
%"class.Luau::CstTypeTable" = type <{ %"class.Luau::CstNode", [4 x i8], %"struct.Luau::AstArray.3", i8, [7 x i8] }>

@_ZN4Luau7CstRttiINS_12CstTypeTableEE5valueE = linkonce_odr dso_local global i32 0, comdat, align 4

; Function Attrs: mustprogress nounwind uwtable
define linkonce_odr dso_local void @_ZN4Luau7CstNodeC2Ei(ptr noundef nonnull align 4 dereferenceable(4) %0, i32 noundef %1) unnamed_addr #3 comdat align 2 {
  %3 = alloca ptr, align 8
  %4 = alloca i32, align 4
  store ptr %0, ptr %3, align 8, !tbaa !18
  store i32 %1, ptr %4, align 4, !tbaa !4
  %5 = load ptr, ptr %3, align 8
  %6 = getelementptr inbounds nuw %"class.Luau::CstNode", ptr %5, i32 0, i32 0
  %7 = load i32, ptr %4, align 4, !tbaa !4
  store i32 %7, ptr %6, align 4, !tbaa !20
  ret void
}

; Function Attrs: mustprogress nounwind uwtable
define linkonce_odr dso_local noundef i32 @_ZN4Luau12CstTypeTable13CstClassIndexEv() #3 comdat align 2 {
  %1 = load i32, ptr @_ZN4Luau7CstRttiINS_12CstTypeTableEE5valueE, align 4, !tbaa !4
  ret i32 %1
}

; Function Attrs: mustprogress uwtable
define dso_local void @_ZN4Luau12CstTypeTableC2ENS_8AstArrayINS0_4ItemEEEb(ptr noundef nonnull align 8 dereferenceable(25) %0, ptr %1, i64 %2, i1 noundef zeroext %3) unnamed_addr #2 align 2 {
  %5 = alloca %"struct.Luau::AstArray.3", align 8
  %6 = alloca ptr, align 8
  %7 = alloca i8, align 1
  %8 = getelementptr inbounds nuw { ptr, i64 }, ptr %5, i32 0, i32 0
  store ptr %1, ptr %8, align 8
  %9 = getelementptr inbounds nuw { ptr, i64 }, ptr %5, i32 0, i32 1
  store i64 %2, ptr %9, align 8
  store ptr %0, ptr %6, align 8, !tbaa !87
  %10 = zext i1 %3 to i8
  store i8 %10, ptr %7, align 1, !tbaa !51
  %11 = load ptr, ptr %6, align 8
  %12 = call noundef i32 @_ZN4Luau12CstTypeTable13CstClassIndexEv()
  call void @_ZN4Luau7CstNodeC2Ei(ptr noundef nonnull align 4 dereferenceable(4) %11, i32 noundef %12)
  %13 = getelementptr inbounds nuw %"class.Luau::CstTypeTable", ptr %11, i32 0, i32 2
  call void @llvm.memcpy.p0.p0.i64(ptr align 8 %13, ptr align 8 %5, i64 16, i1 false), !tbaa.struct !89
  %14 = getelementptr inbounds nuw %"class.Luau::CstTypeTable", ptr %11, i32 0, i32 3
  %15 = load i8, ptr %7, align 1, !tbaa !51, !range !53, !noundef !54
  %16 = trunc i8 %15 to i1
  %17 = zext i1 %16 to i8
  store i8 %17, ptr %14, align 8, !tbaa !92
  ret void
}